target datalayout = "e-m:e-p270:32:32-p271:32:32-p272:64:64-i64:64-i128:128-f80:128-n8:16:32:64-S128"
target triple = "x86_64-pc-linux-gnu"

%struct.regex_t = type { i32, i64, ptr, ptr }
%struct.WHLST = type { %struct.regex_t, ptr }

@wfrom = dso_local global ptr null, align 8
@wto = dso_local global ptr null, align 8

; Function Attrs: nounwind uwtable
define dso_local void @allow_list_free() #0 {
  %1 = alloca ptr, align 8
  br label %2

2:                                                ; preds = %5, %0
  %3 = load ptr, ptr @wfrom, align 8
  %4 = icmp ne ptr %3, null
  br i1 %4, label %5, label %13

5:                                                ; preds = %2
  %6 = load ptr, ptr @wfrom, align 8
  %7 = getelementptr inbounds %struct.WHLST, ptr %6, i32 0, i32 1
  %8 = load ptr, ptr %7, align 8
  store ptr %8, ptr %1, align 8
  %9 = load ptr, ptr @wfrom, align 8
  %10 = getelementptr inbounds %struct.WHLST, ptr %9, i32 0, i32 0
  call void @cli_regfree(ptr noundef %10)
  %11 = load ptr, ptr @wfrom, align 8
  call void @free(ptr noundef %11) #6
  %12 = load ptr, ptr %1, align 8
  store ptr %12, ptr @wfrom, align 8
  br label %2

13:                                               ; preds = %2
  br label %14

14:                                               ; preds = %17, %13
  %15 = load ptr, ptr @wto, align 8
  %16 = icmp ne ptr %15, null
  br i1 %16, label %17, label %25

17:                                               ; preds = %14
  %18 = load ptr, ptr @wto, align 8
  %19 = getelementptr inbounds %struct.WHLST, ptr %18, i32 0, i32 1
  %20 = load ptr, ptr %19, align 8
  store ptr %20, ptr %1, align 8
  %21 = load ptr, ptr @wto, align 8
  %22 = getelementptr inbounds %struct.WHLST, ptr %21, i32 0, i32 0
  call void @cli_regfree(ptr noundef %22)
  %23 = load ptr, ptr @wto, align 8
  call void @free(ptr noundef %23) #6
  %24 = load ptr, ptr %1, align 8
  store ptr %24, ptr @wto, align 8
  br label %14

25:                                               ; preds = %14
  ret void
}