; Function Attrs: nounwind uwtable
define dso_local void @allow_list_free() local_unnamed_addr #0 {
  %.pr = load ptr, ptr @wfrom, align 8
  %.not5 = icmp eq ptr %.pr, null
  br i1 %.not5, label %thread-pre-split, label %.lr.ph

.lr.ph:                                           ; preds = %0, %.lr.ph
  %1 = phi ptr [ %3, %.lr.ph ], [ %.pr, %0 ]
  %2 = getelementptr inbounds i8, ptr %1, i64 32
  %3 = load ptr, ptr %2, align 8
  tail call void @cli_regfree(ptr noundef nonnull %1) #8
  %4 = load ptr, ptr @wfrom, align 8
  tail call void @free(ptr noundef %4) #8
  store ptr %3, ptr @wfrom, align 8
  %.not = icmp eq ptr %3, null
  br i1 %.not, label %thread-pre-split, label %.lr.ph

thread-pre-split:                                 ; preds = %.lr.ph, %0
  %.pr4 = load ptr, ptr @wto, align 8
  %.not36 = icmp eq ptr %.pr4, null
  br i1 %.not36, label %._crit_edge, label %.lr.ph7

.lr.ph7:                                          ; preds = %thread-pre-split, %.lr.ph7
  %5 = phi ptr [ %7, %.lr.ph7 ], [ %.pr4, %thread-pre-split ]
  %6 = getelementptr inbounds i8, ptr %5, i64 32
  %7 = load ptr, ptr %6, align 8
  tail call void @cli_regfree(ptr noundef nonnull %5) #8
  %8 = load ptr, ptr @wto, align 8
  tail call void @free(ptr noundef %8) #8
  store ptr %7, ptr @wto, align 8
  %.not3 = icmp eq ptr %7, null
  br i1 %.not3, label %._crit_edge, label %.lr.ph7

._crit_edge:                                      ; preds = %.lr.ph7, %thread-pre-split
  ret void
}